; Function Attrs: mustprogress null_pointer_is_valid sspstrong uwtable
define noundef ptr @_ZN22SCTPAssocAnalyseDialog9findAssocEP7QWidgett(ptr noundef %0, i16 noundef zeroext %1) local_unnamed_addr #0 align 2 personality ptr @__gxx_personality_v0 {
  %3 = alloca %class.QString, align 8
  %4 = alloca %class.QString, align 8
  %5 = alloca %class.QString, align 8
  %6 = tail call ptr @get_sctp_assoc_info(i16 noundef zeroext %1)
  %.not = icmp eq ptr %6, null
  br i1 %.not, label %7, label %41

7:                                                ; preds = %2
  call void @llvm.lifetime.start.p0(i64 24, ptr nonnull %3) #12
  call void @_ZNK11QMetaObject2trEPKcS1_i(ptr dead_on_unwind nonnull writable sret(%class.QString) align 8 %3, ptr noundef nonnull align 8 dereferenceable_or_null(56) @_ZN22SCTPAssocAnalyseDialog16staticMetaObjectE, ptr noundef nonnull @.str.2, ptr noundef null, i32 noundef -1)
  call void @llvm.lifetime.start.p0(i64 24, ptr nonnull %4) #12
  call void @llvm.lifetime.start.p0(i64 24, ptr nonnull %5) #12
  invoke void @_ZNK11QMetaObject2trEPKcS1_i(ptr dead_on_unwind nonnull writable sret(%class.QString) align 8 %5, ptr noundef nonnull align 8 dereferenceable_or_null(56) @_ZN22SCTPAssocAnalyseDialog16staticMetaObjectE, ptr noundef nonnull @.str.3, ptr noundef null, i32 noundef -1)
          to label %_ZN22SCTPAssocAnalyseDialog2trEPKcS1_i.exit unwind label %23

_ZN22SCTPAssocAnalyseDialog2trEPKcS1_i.exit:      ; preds = %7
  %8 = zext i16 %1 to i64
  invoke void @_ZNK7QString3argEyii5QChar(ptr dead_on_unwind nonnull writable sret(%class.QString) align 8 %4, ptr noundef nonnull align 8 dereferenceable_or_null(24) %5, i64 noundef %8, i32 noundef 0, i32 noundef 10, i16 32)
          to label %_ZNK7QString3argEtii5QChar.exit unwind label %25

_ZNK7QString3argEtii5QChar.exit:                  ; preds = %_ZN22SCTPAssocAnalyseDialog2trEPKcS1_i.exit
  %9 = invoke noundef i32 @_ZN11QMessageBox7warningEP7QWidgetRK7QStringS4_6QFlagsINS_14StandardButtonEES6_(ptr noundef %0, ptr noundef nonnull align 8 dereferenceable(24) %3, ptr noundef nonnull align 8 dereferenceable(24) %4, i32 1024, i32 noundef 0)
          to label %10 unwind label %27

10:                                               ; preds = %_ZNK7QString3argEtii5QChar.exit
  %11 = load ptr, ptr %4, align 8
  %.not.i.i.i = icmp eq ptr %11, null
  br i1 %.not.i.i.i, label %_ZN7QStringD2Ev.exit, label %_ZN17QArrayDataPointerIDsE5derefEv.exit.i.i

_ZN17QArrayDataPointerIDsE5derefEv.exit.i.i:      ; preds = %10
  %12 = atomicrmw sub ptr %11, i32 1 seq_cst, align 4
  %.not.i.i = icmp eq i32 %12, 1
  br i1 %.not.i.i, label %13, label %_ZN7QStringD2Ev.exit

13:                                               ; preds = %_ZN17QArrayDataPointerIDsE5derefEv.exit.i.i
  %14 = load ptr, ptr %4, align 8
  call void @_ZN10QArrayData10deallocateEPS_xx(ptr noundef %14, i64 noundef 2, i64 noundef 8) #12
  br label %_ZN7QStringD2Ev.exit

_ZN7QStringD2Ev.exit:                             ; preds = %10, %_ZN17QArrayDataPointerIDsE5derefEv.exit.i.i, %13
  %15 = load ptr, ptr %5, align 8
  %.not.i.i.i13 = icmp eq ptr %15, null
  br i1 %.not.i.i.i13, label %_ZN7QStringD2Ev.exit16, label %_ZN17QArrayDataPointerIDsE5derefEv.exit.i.i14

_ZN17QArrayDataPointerIDsE5derefEv.exit.i.i14:    ; preds = %_ZN7QStringD2Ev.exit
  %16 = atomicrmw sub ptr %15, i32 1 seq_cst, align 4
  %.not.i.i15 = icmp eq i32 %16, 1
  br i1 %.not.i.i15, label %17, label %_ZN7QStringD2Ev.exit16

17:                                               ; preds = %_ZN17QArrayDataPointerIDsE5derefEv.exit.i.i14
  %18 = load ptr, ptr %5, align 8
  call void @_ZN10QArrayData10deallocateEPS_xx(ptr noundef %18, i64 noundef 2, i64 noundef 8) #12
  br label %_ZN7QStringD2Ev.exit16

_ZN7QStringD2Ev.exit16:                           ; preds = %_ZN7QStringD2Ev.exit, %_ZN17QArrayDataPointerIDsE5derefEv.exit.i.i14, %17
  call void @llvm.lifetime.end.p0(i64 24, ptr nonnull %5) #12
  call void @llvm.lifetime.end.p0(i64 24, ptr nonnull %4) #12
  %19 = load ptr, ptr %3, align 8
  %.not.i.i.i17 = icmp eq ptr %19, null
  br i1 %.not.i.i.i17, label %_ZN7QStringD2Ev.exit20, label %_ZN17QArrayDataPointerIDsE5derefEv.exit.i.i18

_ZN17QArrayDataPointerIDsE5derefEv.exit.i.i18:    ; preds = %_ZN7QStringD2Ev.exit16
  %20 = atomicrmw sub ptr %19, i32 1 seq_cst, align 4
  %.not.i.i19 = icmp eq i32 %20, 1
  br i1 %.not.i.i19, label %21, label %_ZN7QStringD2Ev.exit20

21:                                               ; preds = %_ZN17QArrayDataPointerIDsE5derefEv.exit.i.i18
  %22 = load ptr, ptr %3, align 8
  call void @_ZN10QArrayData10deallocateEPS_xx(ptr noundef %22, i64 noundef 2, i64 noundef 8) #12
  br label %_ZN7QStringD2Ev.exit20

_ZN7QStringD2Ev.exit20:                           ; preds = %_ZN7QStringD2Ev.exit16, %_ZN17QArrayDataPointerIDsE5derefEv.exit.i.i18, %21
  call void @llvm.lifetime.end.p0(i64 24, ptr nonnull %3) #12
  br label %41

23:                                               ; preds = %7
  %24 = landingpad { ptr, i32 }
          cleanup
  br label %_ZN7QStringD2Ev.exit28

25:                                               ; preds = %_ZN22SCTPAssocAnalyseDialog2trEPKcS1_i.exit
  %26 = landingpad { ptr, i32 }
          cleanup
  br label %_ZN7QStringD2Ev.exit24

27:                                               ; preds = %_ZNK7QString3argEtii5QChar.exit
  %28 = landingpad { ptr, i32 }
          cleanup
  %29 = load ptr, ptr %4, align 8
  %.not.i.i.i21 = icmp eq ptr %29, null
  br i1 %.not.i.i.i21, label %_ZN7QStringD2Ev.exit24, label %_ZN17QArrayDataPointerIDsE5derefEv.exit.i.i22

_ZN17QArrayDataPointerIDsE5derefEv.exit.i.i22:    ; preds = %27
  %30 = atomicrmw sub ptr %29, i32 1 seq_cst, align 4
  %.not.i.i23 = icmp eq i32 %30, 1
  br i1 %.not.i.i23, label %31, label %_ZN7QStringD2Ev.exit24

31:                                               ; preds = %_ZN17QArrayDataPointerIDsE5derefEv.exit.i.i22
  %32 = load ptr, ptr %4, align 8
  call void @_ZN10QArrayData10deallocateEPS_xx(ptr noundef %32, i64 noundef 2, i64 noundef 8) #12
  br label %_ZN7QStringD2Ev.exit24

_ZN7QStringD2Ev.exit24:                           ; preds = %31, %_ZN17QArrayDataPointerIDsE5derefEv.exit.i.i22, %27, %25
  %.pn = phi { ptr, i32 } [ %26, %25 ], [ %28, %27 ], [ %28, %_ZN17QArrayDataPointerIDsE5derefEv.exit.i.i22 ], [ %28, %31 ]
  %33 = load ptr, ptr %5, align 8
  %.not.i.i.i25 = icmp eq ptr %33, null
  br i1 %.not.i.i.i25, label %_ZN7QStringD2Ev.exit28, label %_ZN17QArrayDataPointerIDsE5derefEv.exit.i.i26

_ZN17QArrayDataPointerIDsE5derefEv.exit.i.i26:    ; preds = %_ZN7QStringD2Ev.exit24
  %34 = atomicrmw sub ptr %33, i32 1 seq_cst, align 4
  %.not.i.i27 = icmp eq i32 %34, 1
  br i1 %.not.i.i27, label %35, label %_ZN7QStringD2Ev.exit28

35:                                               ; preds = %_ZN17QArrayDataPointerIDsE5derefEv.exit.i.i26
  %36 = load ptr, ptr %5, align 8
  call void @_ZN10QArrayData10deallocateEPS_xx(ptr noundef %36, i64 noundef 2, i64 noundef 8) #12
  br label %_ZN7QStringD2Ev.exit28

_ZN7QStringD2Ev.exit28:                           ; preds = %35, %_ZN17QArrayDataPointerIDsE5derefEv.exit.i.i26, %_ZN7QStringD2Ev.exit24, %23
  %.pn.pn = phi { ptr, i32 } [ %24, %23 ], [ %.pn, %_ZN7QStringD2Ev.exit24 ], [ %.pn, %_ZN17QArrayDataPointerIDsE5derefEv.exit.i.i26 ], [ %.pn, %35 ]
  call void @llvm.lifetime.end.p0(i64 24, ptr nonnull %5) #12
  call void @llvm.lifetime.end.p0(i64 24, ptr nonnull %4) #12
  %37 = load ptr, ptr %3, align 8
  %.not.i.i.i29 = icmp eq ptr %37, null
  br i1 %.not.i.i.i29, label %_ZN7QStringD2Ev.exit32, label %_ZN17QArrayDataPointerIDsE5derefEv.exit.i.i30

_ZN17QArrayDataPointerIDsE5derefEv.exit.i.i30:    ; preds = %_ZN7QStringD2Ev.exit28
  %38 = atomicrmw sub ptr %37, i32 1 seq_cst, align 4
  %.not.i.i31 = icmp eq i32 %38, 1
  br i1 %.not.i.i31, label %39, label %_ZN7QStringD2Ev.exit32

39:                                               ; preds = %_ZN17QArrayDataPointerIDsE5derefEv.exit.i.i30
  %40 = load ptr, ptr %3, align 8
  call void @_ZN10QArrayData10deallocateEPS_xx(ptr noundef %40, i64 noundef 2, i64 noundef 8) #12
  br label %_ZN7QStringD2Ev.exit32

_ZN7QStringD2Ev.exit32:                           ; preds = %_ZN7QStringD2Ev.exit28, %_ZN17QArrayDataPointerIDsE5derefEv.exit.i.i30, %39
  call void @llvm.lifetime.end.p0(i64 24, ptr nonnull %3) #12
  resume { ptr, i32 } %.pn.pn

41:                                               ; preds = %2, %_ZN7QStringD2Ev.exit20
  ret ptr %6
}